target datalayout = "e-m:e-p270:32:32-p271:32:32-p272:64:64-i64:64-i128:128-f80:128-n8:16:32:64-S128"
target triple = "x86_64-pc-linux-gnu"

%struct.except_id_t = type { i64, i64 }
%struct._fvalue_t = type { ptr, %union.anon.1 }
%union.anon.1 = type { %struct._protocol_value_t }
%struct._protocol_value_t = type { ptr, i32, ptr, i8 }
%struct.except_stacknode = type { ptr, i32, %union.anon.2 }
%union.anon.2 = type { ptr }
%struct.except_catch = type { ptr, i64, %struct.except_t, [1 x %struct.__jmp_buf_tag] }
%struct.except_t = type { %struct.except_id_t, ptr, ptr }
%struct.__jmp_buf_tag = type { [8 x i64], i32, %struct.__sigset_t }
%struct.__sigset_t = type { [16 x i64] }

@cmp_order.catch_spec = internal constant [1 x %struct.except_id_t] [%struct.except_id_t { i64 1, i64 0 }], align 16

; Function Attrs: null_pointer_is_valid sspstrong uwtable
define internal i32 @_tvbcmp(ptr noundef %0, ptr noundef %1) #0 {
  %3 = alloca i32, align 4
  %4 = alloca ptr, align 8
  %5 = alloca ptr, align 8
  %6 = alloca i32, align 4
  %7 = alloca i32, align 4
  %8 = alloca i32, align 4
  store ptr %0, ptr %4, align 8
  store ptr %1, ptr %5, align 8
  call void @llvm.lifetime.start.p0(i64 4, ptr %6) #9
  call void @llvm.lifetime.start.p0(i64 4, ptr %7) #9
  %9 = load ptr, ptr %4, align 8
  %10 = getelementptr inbounds nuw %struct._protocol_value_t, ptr %9, i32 0, i32 1
  %11 = load i32, ptr %10, align 8
  %12 = icmp slt i32 %11, 0
  br i1 %12, label %13, label %18

13:                                               ; preds = %2
  %14 = load ptr, ptr %4, align 8
  %15 = getelementptr inbounds nuw %struct._protocol_value_t, ptr %14, i32 0, i32 0
  %16 = load ptr, ptr %15, align 8
  %17 = call i32 @tvb_captured_length(ptr noundef %16)
  store i32 %17, ptr %6, align 4
  br label %22

18:                                               ; preds = %2
  %19 = load ptr, ptr %4, align 8
  %20 = getelementptr inbounds nuw %struct._protocol_value_t, ptr %19, i32 0, i32 1
  %21 = load i32, ptr %20, align 8
  store i32 %21, ptr %6, align 4
  br label %22

22:                                               ; preds = %18, %13
  %23 = load ptr, ptr %5, align 8
  %24 = getelementptr inbounds nuw %struct._protocol_value_t, ptr %23, i32 0, i32 1
  %25 = load i32, ptr %24, align 8
  %26 = icmp slt i32 %25, 0
  br i1 %26, label %27, label %32

27:                                               ; preds = %22
  %28 = load ptr, ptr %5, align 8
  %29 = getelementptr inbounds nuw %struct._protocol_value_t, ptr %28, i32 0, i32 0
  %30 = load ptr, ptr %29, align 8
  %31 = call i32 @tvb_captured_length(ptr noundef %30)
  store i32 %31, ptr %7, align 4
  br label %36

32:                                               ; preds = %22
  %33 = load ptr, ptr %5, align 8
  %34 = getelementptr inbounds nuw %struct._protocol_value_t, ptr %33, i32 0, i32 1
  %35 = load i32, ptr %34, align 8
  store i32 %35, ptr %7, align 4
  br label %36

36:                                               ; preds = %32, %27
  %37 = load i32, ptr %6, align 4
  %38 = load i32, ptr %7, align 4
  %39 = icmp ne i32 %37, %38
  br i1 %39, label %40, label %45

40:                                               ; preds = %36
  %41 = load i32, ptr %6, align 4
  %42 = load i32, ptr %7, align 4
  %43 = icmp ult i32 %41, %42
  %44 = select i1 %43, i32 -1, i32 1
  store i32 %44, ptr %3, align 4
  store i32 1, ptr %8, align 4
  br label %59

45:                                               ; preds = %36
  %46 = load ptr, ptr %4, align 8
  %47 = getelementptr inbounds nuw %struct._protocol_value_t, ptr %46, i32 0, i32 0
  %48 = load ptr, ptr %47, align 8
  %49 = load i32, ptr %6, align 4
  %50 = call ptr @tvb_get_ptr(ptr noundef %48, i32 noundef 0, i32 noundef %49)
  %51 = load ptr, ptr %5, align 8
  %52 = getelementptr inbounds nuw %struct._protocol_value_t, ptr %51, i32 0, i32 0
  %53 = load ptr, ptr %52, align 8
  %54 = load i32, ptr %6, align 4
  %55 = call ptr @tvb_get_ptr(ptr noundef %53, i32 noundef 0, i32 noundef %54)
  %56 = load i32, ptr %6, align 4
  %57 = zext i32 %56 to i64
  %58 = call i32 @memcmp(ptr noundef %50, ptr noundef %55, i64 noundef %57) #10
  store i32 %58, ptr %3, align 4
  store i32 1, ptr %8, align 4
  br label %59

59:                                               ; preds = %45, %40
  call void @llvm.lifetime.end.p0(i64 4, ptr %7) #9
  call void @llvm.lifetime.end.p0(i64 4, ptr %6) #9
  %60 = load i32, ptr %3, align 4
  ret i32 %60
}

; Function Attrs: null_pointer_is_valid sspstrong uwtable
define internal i32 @cmp_order(ptr noundef %0, ptr noundef %1, ptr noundef %2) #0 {
  %4 = alloca ptr, align 8
  %5 = alloca ptr, align 8
  %6 = alloca ptr, align 8
  %7 = alloca ptr, align 8
  %8 = alloca ptr, align 8
  %9 = alloca i32, align 4
  %10 = alloca ptr, align 8
  %11 = alloca i32, align 4
  %12 = alloca %struct.except_stacknode, align 8
  %13 = alloca %struct.except_catch, align 8
  store ptr %0, ptr %4, align 8
  store ptr %1, ptr %5, align 8
  store ptr %2, ptr %6, align 8
  call void @llvm.lifetime.start.p0(i64 8, ptr %7) #9
  %14 = load ptr, ptr %4, align 8
  %15 = getelementptr inbounds nuw %struct._fvalue_t, ptr %14, i32 0, i32 1
  store ptr %15, ptr %7, align 8
  call void @llvm.lifetime.start.p0(i64 8, ptr %8) #9
  %16 = load ptr, ptr %5, align 8
  %17 = getelementptr inbounds nuw %struct._fvalue_t, ptr %16, i32 0, i32 1
  store ptr %17, ptr %8, align 8
  call void @llvm.lifetime.start.p0(i64 4, ptr %9) #9
  store volatile i32 0, ptr %9, align 4
  call void @llvm.lifetime.start.p0(i64 8, ptr %10) #9
  call void @llvm.lifetime.start.p0(i64 4, ptr %11) #9
  store volatile i32 0, ptr %11, align 4
  call void @llvm.lifetime.start.p0(i64 24, ptr %12) #9
  call void @llvm.lifetime.start.p0(i64 248, ptr %13) #9
  call void @except_setup_try(ptr noundef %12, ptr noundef %13, ptr noundef @cmp_order.catch_spec, i64 noundef 1)
  %18 = getelementptr inbounds nuw %struct.except_catch, ptr %13, i32 0, i32 3
  %19 = getelementptr inbounds [1 x %struct.__jmp_buf_tag], ptr %18, i64 0, i64 0
  %20 = call i32 @_setjmp(ptr noundef %19) #12
  %21 = icmp ne i32 %20, 0
  br i1 %21, label %22, label %24

22:                                               ; preds = %3
  %23 = getelementptr inbounds nuw %struct.except_catch, ptr %13, i32 0, i32 2
  store volatile ptr %23, ptr %10, align 8
  br label %25

24:                                               ; preds = %3
  store volatile ptr null, ptr %10, align 8
  br label %25

25:                                               ; preds = %24, %22
  %26 = load volatile i32, ptr %11, align 4
  %27 = and i32 %26, 1
  %28 = icmp ne i32 %27, 0
  br i1 %28, label %29, label %32

29:                                               ; preds = %25
  %30 = load volatile i32, ptr %11, align 4
  %31 = or i32 %30, 2
  store volatile i32 %31, ptr %11, align 4
  br label %32

32:                                               ; preds = %29, %25
  %33 = load volatile i32, ptr %11, align 4
  %34 = and i32 %33, -2
  store volatile i32 %34, ptr %11, align 4
  %35 = load volatile i32, ptr %11, align 4
  %36 = icmp eq i32 %35, 0
  br i1 %36, label %37, label %63

37:                                               ; preds = %32
  %38 = load volatile ptr, ptr %10, align 8
  %39 = icmp eq ptr %38, null
  br i1 %39, label %40, label %63

40:                                               ; preds = %37
  %41 = load ptr, ptr %7, align 8
  %42 = getelementptr inbounds nuw %struct._protocol_value_t, ptr %41, i32 0, i32 0
  %43 = load ptr, ptr %42, align 8
  %44 = icmp ne ptr %43, null
  br i1 %44, label %45, label %54

45:                                               ; preds = %40
  %46 = load ptr, ptr %8, align 8
  %47 = getelementptr inbounds nuw %struct._protocol_value_t, ptr %46, i32 0, i32 0
  %48 = load ptr, ptr %47, align 8
  %49 = icmp ne ptr %48, null
  br i1 %49, label %50, label %54

50:                                               ; preds = %45
  %51 = load ptr, ptr %7, align 8
  %52 = load ptr, ptr %8, align 8
  %53 = call i32 @_tvbcmp(ptr noundef %51, ptr noundef %52)
  store volatile i32 %53, ptr %9, align 4
  br label %62

54:                                               ; preds = %45, %40
  %55 = load ptr, ptr %7, align 8
  %56 = getelementptr inbounds nuw %struct._protocol_value_t, ptr %55, i32 0, i32 2
  %57 = load ptr, ptr %56, align 8
  %58 = load ptr, ptr %8, align 8
  %59 = getelementptr inbounds nuw %struct._protocol_value_t, ptr %58, i32 0, i32 2
  %60 = load ptr, ptr %59, align 8
  %61 = call i32 @strcmp(ptr noundef %57, ptr noundef %60) #10
  store volatile i32 %61, ptr %9, align 4
  br label %62

62:                                               ; preds = %54, %50
  br label %63

63:                                               ; preds = %62, %37, %32
  %64 = load volatile i32, ptr %11, align 4
  %65 = icmp eq i32 %64, 0
  br i1 %65, label %66, label %74

66:                                               ; preds = %63
  %67 = load volatile ptr, ptr %10, align 8
  %68 = icmp ne ptr %67, null
  br i1 %68, label %69, label %74

69:                                               ; preds = %66
  %70 = load volatile i32, ptr %11, align 4
  %71 = or i32 %70, 1
  store volatile i32 %71, ptr %11, align 4
  %72 = icmp ne i32 %71, 0
  br i1 %72, label %73, label %74

73:                                               ; preds = %69
  br label %74

74:                                               ; preds = %73, %69, %66, %63
  %75 = load volatile i32, ptr %11, align 4
  %76 = and i32 %75, 1
  %77 = icmp ne i32 %76, 0
  br i1 %77, label %83, label %78

78:                                               ; preds = %74
  %79 = load volatile ptr, ptr %10, align 8
  %80 = icmp ne ptr %79, null
  br i1 %80, label %81, label %83

81:                                               ; preds = %78
  %82 = load volatile ptr, ptr %10, align 8
  call void @except_rethrow(ptr noundef %82) #13
  unreachable

83:                                               ; preds = %78, %74
  %84 = getelementptr inbounds nuw %struct.except_catch, ptr %13, i32 0, i32 2
  %85 = getelementptr inbounds nuw %struct.except_t, ptr %84, i32 0, i32 2
  %86 = load volatile ptr, ptr %85, align 8
  call void @except_free(ptr noundef %86)
  %87 = call ptr @except_pop()
  call void @llvm.lifetime.end.p0(i64 248, ptr %13) #9
  call void @llvm.lifetime.end.p0(i64 24, ptr %12) #9
  call void @llvm.lifetime.end.p0(i64 4, ptr %11) #9
  call void @llvm.lifetime.end.p0(i64 8, ptr %10) #9
  %88 = load volatile i32, ptr %9, align 4
  %89 = load ptr, ptr %6, align 8
  store i32 %88, ptr %89, align 4
  call void @llvm.lifetime.end.p0(i64 4, ptr %9) #9
  call void @llvm.lifetime.end.p0(i64 8, ptr %8) #9
  call void @llvm.lifetime.end.p0(i64 8, ptr %7) #9
  ret i32 0
}