; Function Attrs: null_pointer_is_valid sspstrong uwtable
define internal noundef i32 @cmp_order(ptr noundef readonly captures(none) %0, ptr noundef readonly captures(none) %1, ptr noundef writeonly captures(none) %2) #0 {
  %4 = alloca i32, align 4
  %5 = alloca ptr, align 8
  %6 = alloca i32, align 4
  %7 = alloca %struct.except_stacknode, align 8
  %8 = alloca %struct.except_catch, align 8
  %9 = getelementptr inbounds nuw i8, ptr %0, i64 8
  %10 = getelementptr inbounds nuw i8, ptr %1, i64 8
  call void @llvm.lifetime.start.p0(i64 4, ptr nonnull %4)
  store volatile i32 0, ptr %4, align 4
  call void @llvm.lifetime.start.p0(i64 8, ptr nonnull %5)
  call void @llvm.lifetime.start.p0(i64 4, ptr nonnull %6)
  store volatile i32 0, ptr %6, align 4
  call void @llvm.lifetime.start.p0(i64 24, ptr nonnull %7) #12
  call void @llvm.lifetime.start.p0(i64 248, ptr nonnull %8) #12
  call void @except_setup_try(ptr noundef nonnull %7, ptr noundef nonnull %8, ptr noundef nonnull @cmp_order.catch_spec, i64 noundef 1)
  %11 = getelementptr inbounds nuw i8, ptr %8, i64 48
  %12 = call i32 @_setjmp(ptr noundef nonnull %11) #13
  %.not = icmp eq i32 %12, 0
  %13 = getelementptr inbounds nuw i8, ptr %8, i64 16
  %.sink = select i1 %.not, ptr null, ptr %13
  store volatile ptr %.sink, ptr %5, align 8
  %.0..0..0..0. = load volatile i32, ptr %6, align 4
  %14 = and i32 %.0..0..0..0., 1
  %.not21 = icmp eq i32 %14, 0
  br i1 %.not21, label %17, label %15

15:                                               ; preds = %3
  %.0..0..0..0.1 = load volatile i32, ptr %6, align 4
  %16 = or i32 %.0..0..0..0.1, 2
  store volatile i32 %16, ptr %6, align 4
  br label %17

17:                                               ; preds = %15, %3
  %.0..0..0..0.2 = load volatile i32, ptr %6, align 4
  %18 = and i32 %.0..0..0..0.2, -2
  store volatile i32 %18, ptr %6, align 4
  %.0..0..0..0.3 = load volatile i32, ptr %6, align 4
  %19 = icmp eq i32 %.0..0..0..0.3, 0
  br i1 %19, label %20, label %56

20:                                               ; preds = %17
  %.0..0..0..0.7 = load volatile ptr, ptr %5, align 8
  %21 = icmp eq ptr %.0..0..0..0.7, null
  br i1 %21, label %22, label %56

22:                                               ; preds = %20
  %23 = load ptr, ptr %9, align 8
  %.not22 = icmp eq ptr %23, null
  br i1 %.not22, label %50, label %24

24:                                               ; preds = %22
  %25 = load ptr, ptr %10, align 8
  %.not23 = icmp eq ptr %25, null
  br i1 %.not23, label %50, label %26

26:                                               ; preds = %24
  %27 = getelementptr inbounds nuw i8, ptr %0, i64 16
  %28 = load i32, ptr %27, align 8
  %29 = icmp slt i32 %28, 0
  br i1 %29, label %30, label %32

30:                                               ; preds = %26
  %31 = call i32 @tvb_captured_length(ptr noundef nonnull %23)
  br label %32

32:                                               ; preds = %30, %26
  %.015.i = phi i32 [ %31, %30 ], [ %28, %26 ]
  %33 = getelementptr inbounds nuw i8, ptr %1, i64 16
  %34 = load i32, ptr %33, align 8
  %35 = icmp slt i32 %34, 0
  br i1 %35, label %36, label %39

36:                                               ; preds = %32
  %37 = load ptr, ptr %10, align 8
  %38 = call i32 @tvb_captured_length(ptr noundef %37)
  br label %39

39:                                               ; preds = %36, %32
  %.0.i = phi i32 [ %38, %36 ], [ %34, %32 ]
  %.not.i = icmp eq i32 %.015.i, %.0.i
  br i1 %.not.i, label %43, label %40

40:                                               ; preds = %39
  %41 = icmp ult i32 %.015.i, %.0.i
  %42 = select i1 %41, i32 -1, i32 1
  br label %.sink.split

43:                                               ; preds = %39
  %44 = load ptr, ptr %9, align 8
  %45 = call ptr @tvb_get_ptr(ptr noundef %44, i32 noundef 0, i32 noundef %.015.i)
  %46 = load ptr, ptr %10, align 8
  %47 = call ptr @tvb_get_ptr(ptr noundef %46, i32 noundef 0, i32 noundef %.015.i)
  %48 = zext i32 %.015.i to i64
  %49 = call i32 @memcmp(ptr noundef %45, ptr noundef %47, i64 noundef %48) #10
  br label %.sink.split

50:                                               ; preds = %24, %22
  %51 = getelementptr inbounds nuw i8, ptr %0, i64 24
  %52 = load ptr, ptr %51, align 8
  %53 = getelementptr inbounds nuw i8, ptr %1, i64 24
  %54 = load ptr, ptr %53, align 8
  %55 = call i32 @strcmp(ptr noundef %52, ptr noundef %54) #10
  br label %.sink.split

.sink.split:                                      ; preds = %43, %40, %50
  %.016.i.sink = phi i32 [ %55, %50 ], [ %42, %40 ], [ %49, %43 ]
  store volatile i32 %.016.i.sink, ptr %4, align 4
  br label %56

56:                                               ; preds = %.sink.split, %20, %17
  %.0..0..0..0.4 = load volatile i32, ptr %6, align 4
  %57 = icmp eq i32 %.0..0..0..0.4, 0
  br i1 %57, label %58, label %61

58:                                               ; preds = %56
  %.0..0..0..0.8 = load volatile ptr, ptr %5, align 8
  %.not24 = icmp eq ptr %.0..0..0..0.8, null
  br i1 %.not24, label %61, label %59

59:                                               ; preds = %58
  %.0..0..0..0.5 = load volatile i32, ptr %6, align 4
  %60 = or i32 %.0..0..0..0.5, 1
  store volatile i32 %60, ptr %6, align 4
  br label %61

61:                                               ; preds = %59, %58, %56
  %.0..0..0..0.6 = load volatile i32, ptr %6, align 4
  %62 = and i32 %.0..0..0..0.6, 1
  %.not25 = icmp eq i32 %62, 0
  br i1 %.not25, label %63, label %65

63:                                               ; preds = %61
  %.0..0..0..0.9 = load volatile ptr, ptr %5, align 8
  %.not26 = icmp eq ptr %.0..0..0..0.9, null
  br i1 %.not26, label %65, label %64

64:                                               ; preds = %63
  %.0..0..0..0.10 = load volatile ptr, ptr %5, align 8
  call void @except_rethrow(ptr noundef %.0..0..0..0.10) #14
  unreachable

65:                                               ; preds = %63, %61
  %66 = getelementptr inbounds nuw i8, ptr %8, i64 40
  %67 = load volatile ptr, ptr %66, align 8
  call void @except_free(ptr noundef %67)
  %68 = call ptr @except_pop()
  call void @llvm.lifetime.end.p0(i64 248, ptr nonnull %8) #12
  call void @llvm.lifetime.end.p0(i64 24, ptr nonnull %7) #12
  call void @llvm.lifetime.end.p0(i64 4, ptr nonnull %6)
  call void @llvm.lifetime.end.p0(i64 8, ptr nonnull %5)
  %.0..0..0..0.11 = load volatile i32, ptr %4, align 4
  store i32 %.0..0..0..0.11, ptr %2, align 4
  call void @llvm.lifetime.end.p0(i64 4, ptr nonnull %4)
  ret i32 0
}